(dp0
S'Ish'
p1
(dp2
S'7correct'
p3
I0
sS'2correct'
p4
I0
sS'4correct'
p5
I0
sS'userType'
p6
S'a'
p7
sS'9correct'
p8
I0
sS'lesson'
p9
I1
sS'0attempted'
p10
I0
sS'0correct'
p11
I0
sS'6correct'
p12
I0
sS'9attempted'
p13
I0
sS'sessionAccuracy'
p14
I0
sS'8correct'
p15
I0
sS'3attempted'
p16
I0
sS'2attempted'
p17
I0
sS'5correct'
p18
I0
sS'5attempted'
p19
I0
sS'logins'
p20
I20
sS'digitsComplete'
p21
I0
sS'4attempted'
p22
I0
sS'1attempted'
p23
I0
sS'1correct'
p24
I0
sS'6attempted'
p25
I0
sS'3correct'
p26
I0
sS'8attempted'
p27
I0
sS'7attempted'
p28
I0
ssS'Ishmael'
p29
(dp30
S'7correct'
p31
I0
sS'2correct'
p32
I0
sS'4correct'
p33
I0
sS'userType'
p34
S'adult?'
p35
sS'9correct'
p36
I0
sS'lesson'
p37
I1
sS'0attempted'
p38
I0
sS'0correct'
p39
I0
sS'6correct'
p40
I0
sS'9attempted'
p41
I0
sS'sessionAccuracy'
p42
I0
sS'8correct'
p43
I0
sS'3attempted'
p44
I0
sS'2attempted'
p45
I0
sS'5correct'
p46
I0
sS'5attempted'
p47
I0
sS'logins'
p48
I4
sS'digitsComplete'
p49
I0
sS'4attempted'
p50
I0
sS'1attempted'
p51
I0
sS'1correct'
p52
I0
sS'6attempted'
p53
I0
sS'3correct'
p54
I0
sS'8attempted'
p55
I0
sS'7attempted'
p56
I0
ss.